target datalayout = "e-m:e-p270:32:32-p271:32:32-p272:64:64-i64:64-i128:128-f80:128-n8:16:32:64-S128"
target triple = "x86_64-pc-linux-gnu"

%struct.AVRational = type { i32, i32 }
%struct.AVChannelLayout = type { i32, i32, %union.anon.0, ptr }
%union.anon.0 = type { i64 }
%struct.DiracContext = type { ptr, %struct.MpegvideoEncDSPContext, %struct.VideoDSPContext, %struct.DiracDSPContext, %struct.DiracVersionInfo, %struct.GetBitContext, %struct.AVDiracSeqHeader, i32, i64, [3 x %struct.Plane], i32, i32, i32, i32, i32, i32, i32, i32, i32, i32, i32, i32, i32, i32, i32, i32, i32, i32, i32, ptr, i32, i32, ptr, i32, [6 x %struct.anon], %struct.anon.1, %struct.anon.2, [2 x %struct.anon.3], i8, [2 x i16], i32, i32, i32, i32, i32, ptr, ptr, [4 x ptr], ptr, ptr, ptr, i32, [12 x i8], [3 x [1024 x i8]], [4 x ptr], [4 x ptr], ptr, ptr, ptr, ptr, [2 x ptr], [9 x ptr], [6 x ptr], [14 x %struct.DiracFrame], [8 x i8] }
%struct.MpegvideoEncDSPContext = type { ptr, ptr, ptr, ptr, [4 x ptr], ptr }
%struct.VideoDSPContext = type { ptr, ptr }
%struct.DiracDSPContext = type { ptr, [3 x [4 x ptr]], [3 x [4 x ptr]], [3 x ptr], ptr, ptr, [3 x ptr], [4 x ptr], [3 x ptr], [3 x ptr] }
%struct.DiracVersionInfo = type { i32, i32 }
%struct.GetBitContext = type { ptr, ptr, i32, i32, i32 }
%struct.AVDiracSeqHeader = type { i32, i32, i8, i8, i8, i8, i8, i16, i16, i16, i16, i8, i8, i32, i32, %struct.AVRational, %struct.AVRational, i32, i32, i32, i32, i32, %struct.DiracVersionInfo, i32 }
%struct.Plane = type { %struct.DWTPlane, i32, i32, i64, i8, i8, i8, i8, i8, i8, [5 x [4 x %struct.SubBand]] }
%struct.DWTPlane = type { i32, i32, i32, ptr, ptr, ptr }
%struct.SubBand = type { i32, i32, i32, i32, i32, i32, i32, ptr, ptr, i32, ptr }
%struct.anon = type { i32, i32 }
%struct.anon.1 = type { %struct.AVRational, [5 x [4 x i8]] }
%struct.anon.2 = type { i32, i64 }
%struct.anon.3 = type { [2 x i32], [2 x [2 x i32]], [2 x i32], i32, i32 }
%struct.DiracFrame = type { ptr, [3 x i32], [3 x [4 x ptr]], [3 x [4 x ptr]], i32, i32 }
%struct.AVFrame = type { [8 x ptr], [8 x i32], ptr, i32, i32, i32, i32, i32, %struct.AVRational, i64, i64, %struct.AVRational, i32, ptr, i32, i32, [8 x ptr], ptr, i32, ptr, i32, i32, i32, i32, i32, i32, i32, i64, ptr, i32, ptr, ptr, i64, i64, i64, i64, ptr, %struct.AVChannelLayout, i64 }

; Function Attrs: cold nounwind optsize uwtable
define internal void @free_sequence_buffers(ptr noundef %0) #0 {
  %2 = alloca ptr, align 8
  %3 = alloca i32, align 4
  %4 = alloca i32, align 4
  %5 = alloca i32, align 4
  store ptr %0, ptr %2, align 8, !tbaa !29
  call void @llvm.lifetime.start.p0(i64 4, ptr %3) #12
  call void @llvm.lifetime.start.p0(i64 4, ptr %4) #12
  call void @llvm.lifetime.start.p0(i64 4, ptr %5) #12
  store i32 0, ptr %3, align 4, !tbaa !47
  br label %6

6:                                                ; preds = %65, %1
  %7 = load i32, ptr %3, align 4, !tbaa !47
  %8 = icmp slt i32 %7, 14
  br i1 %8, label %9, label %68

9:                                                ; preds = %6
  %10 = load ptr, ptr %2, align 8, !tbaa !29
  %11 = getelementptr inbounds nuw %struct.DiracContext, ptr %10, i32 0, i32 63
  %12 = load i32, ptr %3, align 4, !tbaa !47
  %13 = sext i32 %12 to i64
  %14 = getelementptr inbounds [14 x %struct.DiracFrame], ptr %11, i64 0, i64 %13
  %15 = getelementptr inbounds nuw %struct.DiracFrame, ptr %14, i32 0, i32 0
  %16 = load ptr, ptr %15, align 8, !tbaa !48
  %17 = getelementptr inbounds nuw %struct.AVFrame, ptr %16, i32 0, i32 0
  %18 = getelementptr inbounds [8 x ptr], ptr %17, i64 0, i64 0
  %19 = load ptr, ptr %18, align 8, !tbaa !59
  %20 = icmp ne ptr %19, null
  br i1 %20, label %21, label %36

21:                                               ; preds = %9
  %22 = load ptr, ptr %2, align 8, !tbaa !29
  %23 = getelementptr inbounds nuw %struct.DiracContext, ptr %22, i32 0, i32 63
  %24 = load i32, ptr %3, align 4, !tbaa !47
  %25 = sext i32 %24 to i64
  %26 = getelementptr inbounds [14 x %struct.DiracFrame], ptr %23, i64 0, i64 %25
  %27 = getelementptr inbounds nuw %struct.DiracFrame, ptr %26, i32 0, i32 0
  %28 = load ptr, ptr %27, align 8, !tbaa !48
  call void @av_frame_unref(ptr noundef %28)
  %29 = load ptr, ptr %2, align 8, !tbaa !29
  %30 = getelementptr inbounds nuw %struct.DiracContext, ptr %29, i32 0, i32 63
  %31 = load i32, ptr %3, align 4, !tbaa !47
  %32 = sext i32 %31 to i64
  %33 = getelementptr inbounds [14 x %struct.DiracFrame], ptr %30, i64 0, i64 %32
  %34 = getelementptr inbounds nuw %struct.DiracFrame, ptr %33, i32 0, i32 1
  %35 = getelementptr inbounds [3 x i32], ptr %34, i64 0, i64 0
  call void @llvm.memset.p0.i64(ptr align 8 %35, i8 0, i64 12, i1 false)
  br label %36

36:                                               ; preds = %21, %9
  store i32 0, ptr %4, align 4, !tbaa !47
  br label %37

37:                                               ; preds = %61, %36
  %38 = load i32, ptr %4, align 4, !tbaa !47
  %39 = icmp slt i32 %38, 3
  br i1 %39, label %40, label %64

40:                                               ; preds = %37
  store i32 1, ptr %5, align 4, !tbaa !47
  br label %41

41:                                               ; preds = %57, %40
  %42 = load i32, ptr %5, align 4, !tbaa !47
  %43 = icmp slt i32 %42, 4
  br i1 %43, label %44, label %60

44:                                               ; preds = %41
  %45 = load ptr, ptr %2, align 8, !tbaa !29
  %46 = getelementptr inbounds nuw %struct.DiracContext, ptr %45, i32 0, i32 63
  %47 = load i32, ptr %3, align 4, !tbaa !47
  %48 = sext i32 %47 to i64
  %49 = getelementptr inbounds [14 x %struct.DiracFrame], ptr %46, i64 0, i64 %48
  %50 = getelementptr inbounds nuw %struct.DiracFrame, ptr %49, i32 0, i32 3
  %51 = load i32, ptr %4, align 4, !tbaa !47
  %52 = sext i32 %51 to i64
  %53 = getelementptr inbounds [3 x [4 x ptr]], ptr %50, i64 0, i64 %52
  %54 = load i32, ptr %5, align 4, !tbaa !47
  %55 = sext i32 %54 to i64
  %56 = getelementptr inbounds [4 x ptr], ptr %53, i64 0, i64 %55
  call void @av_freep(ptr noundef %56)
  br label %57

57:                                               ; preds = %44
  %58 = load i32, ptr %5, align 4, !tbaa !47
  %59 = add nsw i32 %58, 1
  store i32 %59, ptr %5, align 4, !tbaa !47
  br label %41, !llvm.loop !141

60:                                               ; preds = %41
  br label %61

61:                                               ; preds = %60
  %62 = load i32, ptr %4, align 4, !tbaa !47
  %63 = add nsw i32 %62, 1
  store i32 %63, ptr %4, align 4, !tbaa !47
  br label %37, !llvm.loop !142

64:                                               ; preds = %37
  br label %65

65:                                               ; preds = %64
  %66 = load i32, ptr %3, align 4, !tbaa !47
  %67 = add nsw i32 %66, 1
  store i32 %67, ptr %3, align 4, !tbaa !47
  br label %6, !llvm.loop !143

68:                                               ; preds = %6
  %69 = load ptr, ptr %2, align 8, !tbaa !29
  %70 = getelementptr inbounds nuw %struct.DiracContext, ptr %69, i32 0, i32 61
  %71 = getelementptr inbounds [9 x ptr], ptr %70, i64 0, i64 0
  call void @llvm.memset.p0.i64(ptr align 16 %71, i8 0, i64 72, i1 false)
  %72 = load ptr, ptr %2, align 8, !tbaa !29
  %73 = getelementptr inbounds nuw %struct.DiracContext, ptr %72, i32 0, i32 62
  %74 = getelementptr inbounds [6 x ptr], ptr %73, i64 0, i64 0
  call void @llvm.memset.p0.i64(ptr align 8 %74, i8 0, i64 48, i1 false)
  store i32 0, ptr %3, align 4, !tbaa !47
  br label %75

75:                                               ; preds = %93, %68
  %76 = load i32, ptr %3, align 4, !tbaa !47
  %77 = icmp slt i32 %76, 3
  br i1 %77, label %78, label %96

78:                                               ; preds = %75
  %79 = load ptr, ptr %2, align 8, !tbaa !29
  %80 = getelementptr inbounds nuw %struct.DiracContext, ptr %79, i32 0, i32 9
  %81 = load i32, ptr %3, align 4, !tbaa !47
  %82 = sext i32 %81 to i64
  %83 = getelementptr inbounds [3 x %struct.Plane], ptr %80, i64 0, i64 %82
  %84 = getelementptr inbounds nuw %struct.Plane, ptr %83, i32 0, i32 0
  %85 = getelementptr inbounds nuw %struct.DWTPlane, ptr %84, i32 0, i32 4
  call void @av_freep(ptr noundef %85)
  %86 = load ptr, ptr %2, align 8, !tbaa !29
  %87 = getelementptr inbounds nuw %struct.DiracContext, ptr %86, i32 0, i32 9
  %88 = load i32, ptr %3, align 4, !tbaa !47
  %89 = sext i32 %88 to i64
  %90 = getelementptr inbounds [3 x %struct.Plane], ptr %87, i64 0, i64 %89
  %91 = getelementptr inbounds nuw %struct.Plane, ptr %90, i32 0, i32 0
  %92 = getelementptr inbounds nuw %struct.DWTPlane, ptr %91, i32 0, i32 5
  call void @av_freep(ptr noundef %92)
  br label %93

93:                                               ; preds = %78
  %94 = load i32, ptr %3, align 4, !tbaa !47
  %95 = add nsw i32 %94, 1
  store i32 %95, ptr %3, align 4, !tbaa !47
  br label %75, !llvm.loop !144

96:                                               ; preds = %75
  %97 = load ptr, ptr %2, align 8, !tbaa !29
  %98 = getelementptr inbounds nuw %struct.DiracContext, ptr %97, i32 0, i32 51
  store i32 0, ptr %98, align 16, !tbaa !145
  %99 = load ptr, ptr %2, align 8, !tbaa !29
  %100 = getelementptr inbounds nuw %struct.DiracContext, ptr %99, i32 0, i32 45
  call void @av_freep(ptr noundef %100)
  %101 = load ptr, ptr %2, align 8, !tbaa !29
  %102 = getelementptr inbounds nuw %struct.DiracContext, ptr %101, i32 0, i32 46
  call void @av_freep(ptr noundef %102)
  %103 = load ptr, ptr %2, align 8, !tbaa !29
  %104 = getelementptr inbounds nuw %struct.DiracContext, ptr %103, i32 0, i32 48
  call void @av_freep(ptr noundef %104)
  %105 = load ptr, ptr %2, align 8, !tbaa !29
  %106 = getelementptr inbounds nuw %struct.DiracContext, ptr %105, i32 0, i32 49
  call void @av_freep(ptr noundef %106)
  %107 = load ptr, ptr %2, align 8, !tbaa !29
  %108 = getelementptr inbounds nuw %struct.DiracContext, ptr %107, i32 0, i32 50
  call void @av_freep(ptr noundef %108)
  call void @llvm.lifetime.end.p0(i64 4, ptr %5) #12
  call void @llvm.lifetime.end.p0(i64 4, ptr %4) #12
  call void @llvm.lifetime.end.p0(i64 4, ptr %3) #12
  ret void
}