; Function Attrs: cold nounwind optsize uwtable
define internal fastcc void @free_sequence_buffers(ptr noundef %0) unnamed_addr #0 {
  %2 = getelementptr inbounds nuw i8, ptr %0, i64 8312
  br label %3

3:                                                ; preds = %1, %14
  %indvars.iv40 = phi i64 [ 0, %1 ], [ %indvars.iv.next41, %14 ]
  %4 = getelementptr inbounds nuw [14 x %struct.DiracFrame], ptr %2, i64 0, i64 %indvars.iv40
  %5 = load ptr, ptr %4, align 8, !tbaa !46
  %6 = load ptr, ptr %5, align 8, !tbaa !52
  %.not = icmp eq ptr %6, null
  br i1 %.not, label %9, label %7

7:                                                ; preds = %3
  tail call void @av_frame_unref(ptr noundef nonnull %5) #13
  %8 = getelementptr inbounds nuw i8, ptr %4, i64 8
  tail call void @llvm.memset.p0.i64(ptr noundef nonnull align 8 dereferenceable(12) %8, i8 0, i64 12, i1 false)
  br label %9

9:                                                ; preds = %7, %3
  %10 = getelementptr inbounds nuw i8, ptr %4, i64 120
  br label %.preheader

.preheader:                                       ; preds = %9, %13
  %indvars.iv36 = phi i64 [ 0, %9 ], [ %indvars.iv.next37, %13 ]
  br label %11

11:                                               ; preds = %.preheader, %11
  %indvars.iv = phi i64 [ 1, %.preheader ], [ %indvars.iv.next, %11 ]
  %12 = getelementptr inbounds nuw [3 x [4 x ptr]], ptr %10, i64 0, i64 %indvars.iv36, i64 %indvars.iv
  tail call void @av_freep(ptr noundef nonnull %12) #13
  %indvars.iv.next = add nuw nsw i64 %indvars.iv, 1
  %exitcond.not = icmp eq i64 %indvars.iv.next, 4
  br i1 %exitcond.not, label %13, label %11, !llvm.loop !231

13:                                               ; preds = %11
  %indvars.iv.next37 = add nuw nsw i64 %indvars.iv36, 1
  %exitcond39.not = icmp eq i64 %indvars.iv.next37, 3
  br i1 %exitcond39.not, label %14, label %.preheader, !llvm.loop !232

14:                                               ; preds = %13
  %indvars.iv.next41 = add nuw nsw i64 %indvars.iv40, 1
  %exitcond43.not = icmp eq i64 %indvars.iv.next41, 14
  br i1 %exitcond43.not, label %15, label %3, !llvm.loop !233

15:                                               ; preds = %14
  %16 = getelementptr inbounds nuw i8, ptr %0, i64 8192
  %17 = getelementptr inbounds nuw i8, ptr %0, i64 576
  tail call void @llvm.memset.p0.i64(ptr noundef nonnull align 16 dereferenceable(120) %16, i8 0, i64 120, i1 false)
  br label %18

18:                                               ; preds = %15, %18
  %indvars.iv44 = phi i64 [ 0, %15 ], [ %indvars.iv.next45, %18 ]
  %19 = getelementptr inbounds nuw [3 x %struct.Plane], ptr %17, i64 0, i64 %indvars.iv44
  %20 = getelementptr inbounds nuw i8, ptr %19, i64 24
  tail call void @av_freep(ptr noundef nonnull %20) #13
  %21 = getelementptr inbounds nuw i8, ptr %19, i64 32
  tail call void @av_freep(ptr noundef nonnull %21) #13
  %indvars.iv.next45 = add nuw nsw i64 %indvars.iv44, 1
  %exitcond47.not = icmp eq i64 %indvars.iv.next45, 3
  br i1 %exitcond47.not, label %22, label %18, !llvm.loop !234

22:                                               ; preds = %18
  %23 = getelementptr inbounds nuw i8, ptr %0, i64 4992
  store i32 0, ptr %23, align 16, !tbaa !130
  %24 = getelementptr inbounds nuw i8, ptr %0, i64 4920
  tail call void @av_freep(ptr noundef nonnull %24) #13
  %25 = getelementptr inbounds nuw i8, ptr %0, i64 4928
  tail call void @av_freep(ptr noundef nonnull %25) #13
  %26 = getelementptr inbounds nuw i8, ptr %0, i64 4968
  tail call void @av_freep(ptr noundef nonnull %26) #13
  %27 = getelementptr inbounds nuw i8, ptr %0, i64 4976
  tail call void @av_freep(ptr noundef nonnull %27) #13
  %28 = getelementptr inbounds nuw i8, ptr %0, i64 4984
  tail call void @av_freep(ptr noundef nonnull %28) #13
  ret void
}